target datalayout = "e-m:e-p270:32:32-p271:32:32-p272:64:64-i64:64-i128:128-f80:128-n8:16:32:64-S128"
target triple = "x86_64-unknown-linux-gnu"

%"class.icu_75::TailoredSet" = type <{ ptr, ptr, ptr, %"class.icu_75::UnicodeString", ptr, i32, [4 x i8] }>
%"class.icu_75::UnicodeString" = type { %"class.icu_75::Replaceable", %"union.icu_75::UnicodeString::StackBufferOrFields" }
%"class.icu_75::Replaceable" = type { %"class.icu_75::UObject" }
%"class.icu_75::UObject" = type { ptr }
%"union.icu_75::UnicodeString::StackBufferOrFields" = type { %struct.anon.0, [32 x i8] }
%struct.anon.0 = type { i16, i32, i32, ptr }
%"class.icu_75::UCharsTrie::Iterator" = type { ptr, ptr, ptr, i32, i32, i8, %"class.icu_75::UnicodeString", i32, i32, ptr }
%"class.icu_75::ConstChar16Ptr" = type { ptr }

; Function Attrs: mustprogress nounwind uwtable
define linkonce_odr noundef i32 @_ZNK6icu_7510UCharsTrie8Iterator8getValueEv(ptr noundef nonnull align 8 dereferenceable(120) %this) #1 comdat align 2 {
entry:
  %this.addr = alloca ptr, align 8
  store ptr %this, ptr %this.addr, align 8
  %this1 = load ptr, ptr %this.addr, align 8
  %value_ = getelementptr inbounds %"class.icu_75::UCharsTrie::Iterator", ptr %this1, i32 0, i32 8
  %0 = load i32, ptr %value_, align 4
  ret i32 %0
}

; Function Attrs: mustprogress nounwind uwtable
define linkonce_odr noundef nonnull align 8 dereferenceable(64) ptr @_ZNK6icu_7510UCharsTrie8Iterator9getStringEv(ptr noundef nonnull align 8 dereferenceable(120) %this) #1 comdat align 2 {
entry:
  %this.addr = alloca ptr, align 8
  store ptr %this, ptr %this.addr, align 8
  %this1 = load ptr, ptr %this.addr, align 8
  %str_ = getelementptr inbounds %"class.icu_75::UCharsTrie::Iterator", ptr %this1, i32 0, i32 6
  ret ptr %str_
}

; Function Attrs: mustprogress nounwind uwtable
define linkonce_odr void @_ZN6icu_7514ConstChar16PtrD2Ev(ptr noundef nonnull align 8 dereferenceable(8) %this) unnamed_addr #1 comdat align 2 {
entry:
  %this.addr = alloca ptr, align 8
  store ptr %this, ptr %this.addr, align 8
  %this1 = load ptr, ptr %this.addr, align 8
  %p_ = getelementptr inbounds %"class.icu_75::ConstChar16Ptr", ptr %this1, i32 0, i32 0
  %0 = load ptr, ptr %p_, align 8
  call void asm sideeffect "", "rm,~{memory},~{dirflag},~{fpsr},~{flags}"(ptr %0) #6, !srcloc !12
  ret void
}

; Function Attrs: mustprogress nounwind uwtable
define linkonce_odr void @_ZN6icu_7514ConstChar16PtrC2EPKDs(ptr noundef nonnull align 8 dereferenceable(8) %this, ptr noundef %p) unnamed_addr #1 comdat align 2 {
entry:
  %this.addr = alloca ptr, align 8
  %p.addr = alloca ptr, align 8
  store ptr %this, ptr %this.addr, align 8
  store ptr %p, ptr %p.addr, align 8
  %this1 = load ptr, ptr %this.addr, align 8
  %p_ = getelementptr inbounds %"class.icu_75::ConstChar16Ptr", ptr %this1, i32 0, i32 0
  %0 = load ptr, ptr %p.addr, align 8
  store ptr %0, ptr %p_, align 8
  ret void
}

; Function Attrs: mustprogress uwtable
define void @_ZN6icu_7511TailoredSet11addPrefixesEPKNS_13CollationDataEiPKDs(ptr noundef nonnull align 8 dereferenceable(100) %this, ptr noundef %d, i32 noundef %c, ptr noundef %p) #0 align 2 personality ptr @__gxx_personality_v0 {
entry:
  %this.addr = alloca ptr, align 8
  %d.addr = alloca ptr, align 8
  %c.addr = alloca i32, align 4
  %p.addr = alloca ptr, align 8
  %prefixes = alloca %"class.icu_75::UCharsTrie::Iterator", align 8
  %agg.tmp = alloca %"class.icu_75::ConstChar16Ptr", align 8
  %exn.slot = alloca ptr, align 8
  %ehselector.slot = alloca i32, align 4
  store ptr %this, ptr %this.addr, align 8
  store ptr %d, ptr %d.addr, align 8
  store i32 %c, ptr %c.addr, align 4
  store ptr %p, ptr %p.addr, align 8
  %this1 = load ptr, ptr %this.addr, align 8
  %0 = load ptr, ptr %p.addr, align 8
  call void @_ZN6icu_7514ConstChar16PtrC2EPKDs(ptr noundef nonnull align 8 dereferenceable(8) %agg.tmp, ptr noundef %0)
  %errorCode = getelementptr inbounds %"class.icu_75::TailoredSet", ptr %this1, i32 0, i32 5
  invoke void @_ZN6icu_7510UCharsTrie8IteratorC1ENS_14ConstChar16PtrEiR10UErrorCode(ptr noundef nonnull align 8 dereferenceable(120) %prefixes, ptr noundef %agg.tmp, i32 noundef 0, ptr noundef nonnull align 4 dereferenceable(4) %errorCode)
          to label %invoke.cont unwind label %lpad

invoke.cont:                                      ; preds = %entry
  call void @_ZN6icu_7514ConstChar16PtrD2Ev(ptr noundef nonnull align 8 dereferenceable(8) %agg.tmp) #6
  br label %while.cond

while.cond:                                       ; preds = %invoke.cont9, %invoke.cont
  %errorCode2 = getelementptr inbounds %"class.icu_75::TailoredSet", ptr %this1, i32 0, i32 5
  %call = invoke noundef signext i8 @_ZN6icu_7510UCharsTrie8Iterator4nextER10UErrorCode(ptr noundef nonnull align 8 dereferenceable(120) %prefixes, ptr noundef nonnull align 4 dereferenceable(4) %errorCode2)
          to label %invoke.cont4 unwind label %lpad3

invoke.cont4:                                     ; preds = %while.cond
  %tobool = icmp ne i8 %call, 0
  br i1 %tobool, label %while.body, label %while.end

while.body:                                       ; preds = %invoke.cont4
  %1 = load ptr, ptr %d.addr, align 8
  %call6 = invoke noundef nonnull align 8 dereferenceable(64) ptr @_ZNK6icu_7510UCharsTrie8Iterator9getStringEv(ptr noundef nonnull align 8 dereferenceable(120) %prefixes)
          to label %invoke.cont5 unwind label %lpad3

invoke.cont5:                                     ; preds = %while.body
  %2 = load i32, ptr %c.addr, align 4
  %call8 = invoke noundef i32 @_ZNK6icu_7510UCharsTrie8Iterator8getValueEv(ptr noundef nonnull align 8 dereferenceable(120) %prefixes)
          to label %invoke.cont7 unwind label %lpad3

invoke.cont7:                                     ; preds = %invoke.cont5
  invoke void @_ZN6icu_7511TailoredSet9addPrefixEPKNS_13CollationDataERKNS_13UnicodeStringEij(ptr noundef nonnull align 8 dereferenceable(100) %this1, ptr noundef %1, ptr noundef nonnull align 8 dereferenceable(64) %call6, i32 noundef %2, i32 noundef %call8)
          to label %invoke.cont9 unwind label %lpad3

invoke.cont9:                                     ; preds = %invoke.cont7
  br label %while.cond, !llvm.loop !9

lpad:                                             ; preds = %entry
  %3 = landingpad { ptr, i32 }
          cleanup
  %4 = extractvalue { ptr, i32 } %3, 0
  store ptr %4, ptr %exn.slot, align 8
  %5 = extractvalue { ptr, i32 } %3, 1
  store i32 %5, ptr %ehselector.slot, align 4
  call void @_ZN6icu_7514ConstChar16PtrD2Ev(ptr noundef nonnull align 8 dereferenceable(8) %agg.tmp) #6
  br label %eh.resume

lpad3:                                            ; preds = %invoke.cont7, %invoke.cont5, %while.body, %while.cond
  %6 = landingpad { ptr, i32 }
          cleanup
  %7 = extractvalue { ptr, i32 } %6, 0
  store ptr %7, ptr %exn.slot, align 8
  %8 = extractvalue { ptr, i32 } %6, 1
  store i32 %8, ptr %ehselector.slot, align 4
  call void @_ZN6icu_7510UCharsTrie8IteratorD1Ev(ptr noundef nonnull align 8 dereferenceable(120) %prefixes) #6
  br label %eh.resume

while.end:                                        ; preds = %invoke.cont4
  call void @_ZN6icu_7510UCharsTrie8IteratorD1Ev(ptr noundef nonnull align 8 dereferenceable(120) %prefixes) #6
  ret void

eh.resume:                                        ; preds = %lpad3, %lpad
  %exn = load ptr, ptr %exn.slot, align 8
  %sel = load i32, ptr %ehselector.slot, align 4
  %lpad.val = insertvalue { ptr, i32 } poison, ptr %exn, 0
  %lpad.val10 = insertvalue { ptr, i32 } %lpad.val, i32 %sel, 1
  resume { ptr, i32 } %lpad.val10
}