; Function Attrs: mustprogress uwtable
define void @_ZN6icu_7511TailoredSet11addPrefixesEPKNS_13CollationDataEiPKDs(ptr noundef nonnull align 8 dereferenceable(100) %this, ptr noundef %d, i32 noundef %c, ptr noundef %p) local_unnamed_addr #0 align 2 personality ptr @__gxx_personality_v0 {
entry:
  %prefixes = alloca %"class.icu_75::UCharsTrie::Iterator", align 8
  %agg.tmp = alloca %"class.icu_75::ConstChar16Ptr", align 8
  store ptr %p, ptr %agg.tmp, align 8
  %errorCode = getelementptr inbounds i8, ptr %this, i64 96
  invoke void @_ZN6icu_7510UCharsTrie8IteratorC1ENS_14ConstChar16PtrEiR10UErrorCode(ptr noundef nonnull align 8 dereferenceable(120) %prefixes, ptr noundef nonnull %agg.tmp, i32 noundef 0, ptr noundef nonnull align 4 dereferenceable(4) %errorCode)
          to label %invoke.cont unwind label %lpad

invoke.cont:                                      ; preds = %entry
  %0 = load ptr, ptr %agg.tmp, align 8
  call void asm sideeffect "", "rm,~{memory},~{dirflag},~{fpsr},~{flags}"(ptr %0) #9, !srcloc !7
  %str_.i = getelementptr inbounds i8, ptr %prefixes, i64 40
  %value_.i = getelementptr inbounds i8, ptr %prefixes, i64 108
  br label %while.cond

while.cond:                                       ; preds = %while.body, %invoke.cont
  %call = invoke noundef signext i8 @_ZN6icu_7510UCharsTrie8Iterator4nextER10UErrorCode(ptr noundef nonnull align 8 dereferenceable(120) %prefixes, ptr noundef nonnull align 4 dereferenceable(4) %errorCode)
          to label %invoke.cont4 unwind label %lpad3

invoke.cont4:                                     ; preds = %while.cond
  %tobool.not = icmp eq i8 %call, 0
  br i1 %tobool.not, label %while.end, label %while.body

while.body:                                       ; preds = %invoke.cont4
  %1 = load i32, ptr %value_.i, align 4
  invoke void @_ZN6icu_7511TailoredSet9addPrefixEPKNS_13CollationDataERKNS_13UnicodeStringEij(ptr noundef nonnull align 8 dereferenceable(100) %this, ptr noundef %d, ptr noundef nonnull align 8 dereferenceable(64) %str_.i, i32 noundef %c, i32 noundef %1)
          to label %while.cond unwind label %lpad3, !llvm.loop !8

lpad:                                             ; preds = %entry
  %2 = landingpad { ptr, i32 }
          cleanup
  %3 = load ptr, ptr %agg.tmp, align 8
  call void asm sideeffect "", "rm,~{memory},~{dirflag},~{fpsr},~{flags}"(ptr %3) #9, !srcloc !7
  br label %eh.resume

lpad3:                                            ; preds = %while.body, %while.cond
  %4 = landingpad { ptr, i32 }
          cleanup
  call void @_ZN6icu_7510UCharsTrie8IteratorD1Ev(ptr noundef nonnull align 8 dereferenceable(120) %prefixes) #9
  br label %eh.resume

while.end:                                        ; preds = %invoke.cont4
  call void @_ZN6icu_7510UCharsTrie8IteratorD1Ev(ptr noundef nonnull align 8 dereferenceable(120) %prefixes) #9
  ret void

eh.resume:                                        ; preds = %lpad3, %lpad
  %.pn = phi { ptr, i32 } [ %4, %lpad3 ], [ %2, %lpad ]
  resume { ptr, i32 } %.pn
}